; Function Attrs: mustprogress uwtable
define noundef i32 @_ZNK6icu_7513OlsonTimeZone20countTransitionRulesER10UErrorCode(ptr noundef nonnull align 8 dereferenceable(224) %this, ptr nocapture noundef nonnull align 4 dereferenceable(4) %status) unnamed_addr #2 align 2 {
entry:
  %0 = load i32, ptr %status, align 4
  %cmp.i = icmp slt i32 %0, 1
  br i1 %cmp.i, label %if.end, label %return

if.end:                                           ; preds = %entry
  %transitionRulesInitOnce.i = getelementptr inbounds i8, ptr %this, i64 216
  %1 = load atomic i32, ptr %transitionRulesInitOnce.i acquire, align 8
  %cmp.not.i.i = icmp eq i32 %1, 2
  br i1 %cmp.not.i.i, label %if.else.i.i, label %land.lhs.true.i.i

land.lhs.true.i.i:                                ; preds = %if.end
  %call2.i.i = tail call noundef signext i8 @_ZN6icu_7520umtx_initImplPreInitERNS_9UInitOnceE(ptr noundef nonnull align 4 dereferenceable(8) %transitionRulesInitOnce.i)
  %tobool3.not.i.i = icmp eq i8 %call2.i.i, 0
  br i1 %tobool3.not.i.i, label %if.else.i.i, label %if.then4.i.i

if.then4.i.i:                                     ; preds = %land.lhs.true.i.i
  tail call void @_ZN6icu_7513OlsonTimeZone19initTransitionRulesER10UErrorCode(ptr noundef nonnull align 8 dereferenceable(224) %this, ptr noundef nonnull align 4 dereferenceable(4) %status)
  %2 = load i32, ptr %status, align 4
  %fErrCode.i.i = getelementptr inbounds i8, ptr %this, i64 220
  store i32 %2, ptr %fErrCode.i.i, align 4
  tail call void @_ZN6icu_7521umtx_initImplPostInitERNS_9UInitOnceE(ptr noundef nonnull align 4 dereferenceable(8) %transitionRulesInitOnce.i)
  br label %_ZNK6icu_7513OlsonTimeZone20checkTransitionRulesER10UErrorCode.exit

if.else.i.i:                                      ; preds = %land.lhs.true.i.i, %if.end
  %fErrCode5.i.i = getelementptr inbounds i8, ptr %this, i64 220
  %3 = load i32, ptr %fErrCode5.i.i, align 4
  %cmp.i9.i.i = icmp slt i32 %3, 1
  br i1 %cmp.i9.i.i, label %_ZNK6icu_7513OlsonTimeZone20checkTransitionRulesER10UErrorCode.exit, label %_ZNK6icu_7513OlsonTimeZone20checkTransitionRulesER10UErrorCode.exit.thread

_ZNK6icu_7513OlsonTimeZone20checkTransitionRulesER10UErrorCode.exit.thread: ; preds = %if.else.i.i
  store i32 %3, ptr %status, align 4
  br label %return

_ZNK6icu_7513OlsonTimeZone20checkTransitionRulesER10UErrorCode.exit: ; preds = %if.then4.i.i, %if.else.i.i
  %.pr = load i32, ptr %status, align 4
  %cmp.i8 = icmp slt i32 %.pr, 1
  br i1 %cmp.i8, label %if.end5, label %return

if.end5:                                          ; preds = %_ZNK6icu_7513OlsonTimeZone20checkTransitionRulesER10UErrorCode.exit
  %historicRules = getelementptr inbounds i8, ptr %this, i64 192
  %4 = load ptr, ptr %historicRules, align 8
  %cmp.not = icmp eq ptr %4, null
  br i1 %cmp.not, label %if.end13, label %for.cond.preheader

for.cond.preheader:                               ; preds = %if.end5
  %historicRuleCount = getelementptr inbounds i8, ptr %this, i64 200
  %5 = load i16, ptr %historicRuleCount, align 8
  %cmp710 = icmp sgt i16 %5, 0
  br i1 %cmp710, label %for.body.preheader, label %if.end13

for.body.preheader:                               ; preds = %for.cond.preheader
  %conv = zext nneg i16 %5 to i64
  br label %for.body

for.body:                                         ; preds = %for.body.preheader, %for.body
  %indvars.iv = phi i64 [ 0, %for.body.preheader ], [ %indvars.iv.next, %for.body ]
  %count.011 = phi i32 [ 0, %for.body.preheader ], [ %spec.select, %for.body ]
  %arrayidx = getelementptr inbounds ptr, ptr %4, i64 %indvars.iv
  %6 = load ptr, ptr %arrayidx, align 8
  %cmp9.not = icmp ne ptr %6, null
  %inc = zext i1 %cmp9.not to i32
  %spec.select = add nuw nsw i32 %count.011, %inc
  %indvars.iv.next = add nuw nsw i64 %indvars.iv, 1
  %exitcond.not = icmp eq i64 %indvars.iv.next, %conv
  br i1 %exitcond.not, label %if.end13, label %for.body, !llvm.loop !16

if.end13:                                         ; preds = %for.body, %for.cond.preheader, %if.end5
  %count.2 = phi i32 [ 0, %if.end5 ], [ 0, %for.cond.preheader ], [ %spec.select, %for.body ]
  %finalZone = getelementptr inbounds i8, ptr %this, i64 128
  %7 = load ptr, ptr %finalZone, align 8
  %cmp14.not = icmp eq ptr %7, null
  br i1 %cmp14.not, label %return, label %if.then15

if.then15:                                        ; preds = %if.end13
  %vtable = load ptr, ptr %7, align 8
  %vfn = getelementptr inbounds i8, ptr %vtable, i64 72
  %8 = load ptr, ptr %vfn, align 8
  %call17 = tail call noundef signext i8 %8(ptr noundef nonnull align 8 dereferenceable(160) %7)
  %tobool18.not = icmp eq i8 %call17, 0
  br i1 %tobool18.not, label %if.else, label %if.then19

if.then19:                                        ; preds = %if.then15
  %add = add nsw i32 %count.2, 2
  br label %return

if.else:                                          ; preds = %if.then15
  %inc20 = add nsw i32 %count.2, 1
  br label %return

return:                                           ; preds = %_ZNK6icu_7513OlsonTimeZone20checkTransitionRulesER10UErrorCode.exit.thread, %if.end13, %if.else, %if.then19, %_ZNK6icu_7513OlsonTimeZone20checkTransitionRulesER10UErrorCode.exit, %entry
  %retval.0 = phi i32 [ 0, %entry ], [ 0, %_ZNK6icu_7513OlsonTimeZone20checkTransitionRulesER10UErrorCode.exit ], [ %add, %if.then19 ], [ %inc20, %if.else ], [ %count.2, %if.end13 ], [ 0, %_ZNK6icu_7513OlsonTimeZone20checkTransitionRulesER10UErrorCode.exit.thread ]
  ret i32 %retval.0
}